target datalayout = "e-m:e-p270:32:32-p271:32:32-p272:64:64-i64:64-i128:128-f80:128-n8:16:32:64-S128"
target triple = "x86_64-pc-linux-gnu"

%union.av_intfloat32 = type { i32 }

; Function Attrs: nounwind uwtable
define internal void @sbr_neg_odd_64_c(ptr noundef %0) #1 {
  %2 = alloca ptr, align 8
  %3 = alloca ptr, align 8
  %4 = alloca i32, align 4
  store ptr %0, ptr %2, align 8, !tbaa !21
  call void @llvm.lifetime.start.p0(i64 8, ptr %3) #5
  %5 = load ptr, ptr %2, align 8, !tbaa !21
  store ptr %5, ptr %3, align 8, !tbaa !30
  call void @llvm.lifetime.start.p0(i64 4, ptr %4) #5
  store i32 1, ptr %4, align 4, !tbaa !23
  br label %6

6:                                                ; preds = %24, %1
  %7 = load i32, ptr %4, align 4, !tbaa !23
  %8 = icmp slt i32 %7, 64
  br i1 %8, label %9, label %27

9:                                                ; preds = %6
  %10 = load ptr, ptr %3, align 8, !tbaa !30
  %11 = load i32, ptr %4, align 4, !tbaa !23
  %12 = add nsw i32 %11, 0
  %13 = sext i32 %12 to i64
  %14 = getelementptr inbounds %union.av_intfloat32, ptr %10, i64 %13
  %15 = load i32, ptr %14, align 4, !tbaa !32
  %16 = xor i32 %15, -2147483648
  store i32 %16, ptr %14, align 4, !tbaa !32
  %17 = load ptr, ptr %3, align 8, !tbaa !30
  %18 = load i32, ptr %4, align 4, !tbaa !23
  %19 = add nsw i32 %18, 2
  %20 = sext i32 %19 to i64
  %21 = getelementptr inbounds %union.av_intfloat32, ptr %17, i64 %20
  %22 = load i32, ptr %21, align 4, !tbaa !32
  %23 = xor i32 %22, -2147483648
  store i32 %23, ptr %21, align 4, !tbaa !32
  br label %24

24:                                               ; preds = %9
  %25 = load i32, ptr %4, align 4, !tbaa !23
  %26 = add nsw i32 %25, 4
  store i32 %26, ptr %4, align 4, !tbaa !23
  br label %6, !llvm.loop !33

27:                                               ; preds = %6
  call void @llvm.lifetime.end.p0(i64 4, ptr %4) #5
  call void @llvm.lifetime.end.p0(i64 8, ptr %3) #5
  ret void
}