; Function Attrs: nofree norecurse nosync nounwind memory(argmem: readwrite) uwtable
define internal void @sbr_neg_odd_64_c(ptr noundef captures(none) %0) #1 {
  br label %2

2:                                                ; preds = %1, %2
  %indvars.iv = phi i64 [ 1, %1 ], [ %indvars.iv.next, %2 ]
  %3 = getelementptr inbounds nuw %union.av_intfloat32, ptr %0, i64 %indvars.iv
  %4 = load i32, ptr %3, align 4, !tbaa !24
  %5 = xor i32 %4, -2147483648
  store i32 %5, ptr %3, align 4, !tbaa !24
  %6 = getelementptr inbounds nuw i8, ptr %3, i64 8
  %7 = load i32, ptr %6, align 4, !tbaa !24
  %8 = xor i32 %7, -2147483648
  store i32 %8, ptr %6, align 4, !tbaa !24
  %indvars.iv.next = add nuw nsw i64 %indvars.iv, 4
  %9 = icmp samesign ult i64 %indvars.iv, 60
  br i1 %9, label %2, label %10, !llvm.loop !25

10:                                               ; preds = %2
  ret void
}